target datalayout = "e-m:e-p270:32:32-p271:32:32-p272:64:64-i64:64-i128:128-f80:128-n8:16:32:64-S128"
target triple = "x86_64-pc-linux-gnu"

%"struct.Yosys::RTLIL::IdString" = type { i32 }
%"class.std::vector.8" = type { %"struct.std::_Vector_base.9" }
%"struct.std::_Vector_base.9" = type { %"struct.std::_Vector_base<int, std::allocator<int>>::_Vector_impl" }
%"struct.std::_Vector_base<int, std::allocator<int>>::_Vector_impl" = type { %"struct.std::_Vector_base<int, std::allocator<int>>::_Vector_impl_data" }
%"struct.std::_Vector_base<int, std::allocator<int>>::_Vector_impl_data" = type { ptr, ptr, ptr }

@__dso_handle = external hidden global i8
@_ZN5Yosys5RTLIL8IdString24global_refcount_storage_E = external global %"class.std::vector.8", align 8
@.str.53 = private unnamed_addr constant [5 x i8] c"\\$ne\00", align 1
@"_ZZZN5Yosys3AigC1EPNS_5RTLIL4CellEENK4$_67clEvE2id" = internal global %"struct.Yosys::RTLIL::IdString" zeroinitializer, align 4
@"_ZGVZZN5Yosys3AigC1EPNS_5RTLIL4CellEENK4$_67clEvE2id" = internal global i64 0, align 8

; Function Attrs: mustprogress nounwind uwtable
define linkonce_odr noundef nonnull align 4 dereferenceable(4) ptr @_ZNSt6vectorIiSaIiEEixEm(ptr noundef nonnull align 8 dereferenceable(24) %0, i64 noundef %1) #6 comdat align 2 {
  %3 = alloca ptr, align 8
  %4 = alloca i64, align 8
  store ptr %0, ptr %3, align 8, !tbaa !56
  store i64 %1, ptr %4, align 8, !tbaa !65
  %5 = load ptr, ptr %3, align 8
  %6 = getelementptr inbounds nuw %"struct.std::_Vector_base.9", ptr %5, i32 0, i32 0
  %7 = getelementptr inbounds nuw %"struct.std::_Vector_base<int, std::allocator<int>>::_Vector_impl_data", ptr %6, i32 0, i32 0
  %8 = load ptr, ptr %7, align 8, !tbaa !109
  %9 = load i64, ptr %4, align 8, !tbaa !65
  %10 = getelementptr inbounds nuw i32, ptr %8, i64 %9
  ret ptr %10
}

; Function Attrs: inlinehint mustprogress nounwind uwtable
define linkonce_odr noundef i32 @_ZN5Yosys5RTLIL8IdString13get_referenceEi(i32 noundef %0) #5 comdat align 2 {
  %2 = alloca i32, align 4
  store i32 %0, ptr %2, align 4, !tbaa !32
  %3 = load i32, ptr %2, align 4, !tbaa !32
  %4 = icmp ne i32 %3, 0
  br i1 %4, label %5, label %11

5:                                                ; preds = %1
  %6 = load i32, ptr %2, align 4, !tbaa !32
  %7 = sext i32 %6 to i64
  %8 = call noundef nonnull align 4 dereferenceable(4) ptr @_ZNSt6vectorIiSaIiEEixEm(ptr noundef nonnull align 8 dereferenceable(24) @_ZN5Yosys5RTLIL8IdString24global_refcount_storage_E, i64 noundef %7) #3
  %9 = load i32, ptr %8, align 4, !tbaa !32
  %10 = add nsw i32 %9, 1
  store i32 %10, ptr %8, align 4, !tbaa !32
  br label %11

11:                                               ; preds = %5, %1
  %12 = load i32, ptr %2, align 4, !tbaa !32
  ret i32 %12
}

; Function Attrs: inlinehint mustprogress nounwind uwtable
define linkonce_odr void @_ZN5Yosys5RTLIL8IdStringC2ERKS1_(ptr noundef nonnull align 4 dereferenceable(4) %0, ptr noundef nonnull align 4 dereferenceable(4) %1) unnamed_addr #5 comdat align 2 {
  %3 = alloca ptr, align 8
  %4 = alloca ptr, align 8
  store ptr %0, ptr %3, align 8, !tbaa !24
  store ptr %1, ptr %4, align 8, !tbaa !24
  %5 = load ptr, ptr %3, align 8
  %6 = getelementptr inbounds nuw %"struct.Yosys::RTLIL::IdString", ptr %5, i32 0, i32 0
  %7 = load ptr, ptr %4, align 8, !tbaa !24
  %8 = getelementptr inbounds nuw %"struct.Yosys::RTLIL::IdString", ptr %7, i32 0, i32 0
  %9 = load i32, ptr %8, align 4, !tbaa !26
  %10 = call noundef i32 @_ZN5Yosys5RTLIL8IdString13get_referenceEi(i32 noundef %9)
  store i32 %10, ptr %6, align 4, !tbaa !26
  ret void
}

; Function Attrs: inlinehint mustprogress uwtable
define linkonce_odr void @_ZN5Yosys5RTLIL8IdStringC2EPKc(ptr noundef nonnull align 4 dereferenceable(4) %0, ptr noundef %1) unnamed_addr #9 comdat align 2 {
  %3 = alloca ptr, align 8
  %4 = alloca ptr, align 8
  store ptr %0, ptr %3, align 8, !tbaa !24
  store ptr %1, ptr %4, align 8, !tbaa !67
  %5 = load ptr, ptr %3, align 8
  %6 = getelementptr inbounds nuw %"struct.Yosys::RTLIL::IdString", ptr %5, i32 0, i32 0
  %7 = load ptr, ptr %4, align 8, !tbaa !67
  %8 = call noundef i32 @_ZN5Yosys5RTLIL8IdString13get_referenceEPKc(ptr noundef %7)
  store i32 %8, ptr %6, align 4, !tbaa !26
  ret void
}

; Function Attrs: inlinehint mustprogress uwtable
define internal void @"_ZZN5Yosys3AigC1EPNS_5RTLIL4CellEENK4$_67clEv"(ptr dead_on_unwind noalias writable sret(%"struct.Yosys::RTLIL::IdString") align 4 %0, ptr noundef nonnull align 1 dereferenceable(1) %1) #9 align 2 personality ptr @__gxx_personality_v0 {
  %3 = alloca ptr, align 8
  %4 = alloca ptr, align 8
  %5 = alloca ptr, align 8
  %6 = alloca ptr, align 8
  %7 = alloca ptr, align 8
  %8 = alloca i32, align 4
  store ptr %0, ptr %3, align 8
  store ptr %1, ptr %4, align 8, !tbaa !97
  call void @llvm.lifetime.start.p0(i64 8, ptr %5) #3
  store ptr @.str.53, ptr %5, align 8, !tbaa !67
  call void @llvm.lifetime.start.p0(i64 8, ptr %6) #3
  %9 = load ptr, ptr %5, align 8, !tbaa !67
  %10 = getelementptr inbounds i8, ptr %9, i64 1
  %11 = load i8, ptr %10, align 1, !tbaa !69
  %12 = sext i8 %11 to i32
  %13 = icmp eq i32 %12, 36
  br i1 %13, label %14, label %17

14:                                               ; preds = %2
  %15 = load ptr, ptr %5, align 8, !tbaa !67
  %16 = getelementptr inbounds i8, ptr %15, i64 1
  br label %19

17:                                               ; preds = %2
  %18 = load ptr, ptr %5, align 8, !tbaa !67
  br label %19

19:                                               ; preds = %17, %14
  %20 = phi ptr [ %16, %14 ], [ %18, %17 ]
  store ptr %20, ptr %6, align 8, !tbaa !67
  %21 = load atomic i8, ptr @"_ZGVZZN5Yosys3AigC1EPNS_5RTLIL4CellEENK4$_67clEvE2id" acquire, align 8
  %22 = icmp eq i8 %21, 0
  br i1 %22, label %23, label %30, !prof !98

23:                                               ; preds = %19
  %24 = call i32 @__cxa_guard_acquire(ptr @"_ZGVZZN5Yosys3AigC1EPNS_5RTLIL4CellEENK4$_67clEvE2id") #3
  %25 = icmp ne i32 %24, 0
  br i1 %25, label %26, label %30

26:                                               ; preds = %23
  %27 = load ptr, ptr %6, align 8, !tbaa !67
  invoke void @_ZN5Yosys5RTLIL8IdStringC2EPKc(ptr noundef nonnull align 4 dereferenceable(4) @"_ZZZN5Yosys3AigC1EPNS_5RTLIL4CellEENK4$_67clEvE2id", ptr noundef %27)
          to label %28 unwind label %31

28:                                               ; preds = %26
  %29 = call i32 @__cxa_atexit(ptr @_ZN5Yosys5RTLIL8IdStringD2Ev, ptr @"_ZZZN5Yosys3AigC1EPNS_5RTLIL4CellEENK4$_67clEvE2id", ptr @__dso_handle) #3
  call void @__cxa_guard_release(ptr @"_ZGVZZN5Yosys3AigC1EPNS_5RTLIL4CellEENK4$_67clEvE2id") #3
  br label %30

30:                                               ; preds = %28, %23, %19
  call void @_ZN5Yosys5RTLIL8IdStringC2ERKS1_(ptr noundef nonnull align 4 dereferenceable(4) %0, ptr noundef nonnull align 4 dereferenceable(4) @"_ZZZN5Yosys3AigC1EPNS_5RTLIL4CellEENK4$_67clEvE2id")
  call void @llvm.lifetime.end.p0(i64 8, ptr %6) #3
  call void @llvm.lifetime.end.p0(i64 8, ptr %5) #3
  ret void

31:                                               ; preds = %26
  %32 = landingpad { ptr, i32 }
          cleanup
  %33 = extractvalue { ptr, i32 } %32, 0
  store ptr %33, ptr %7, align 8
  %34 = extractvalue { ptr, i32 } %32, 1
  store i32 %34, ptr %8, align 4
  call void @__cxa_guard_abort(ptr @"_ZGVZZN5Yosys3AigC1EPNS_5RTLIL4CellEENK4$_67clEvE2id") #3
  call void @llvm.lifetime.end.p0(i64 8, ptr %6) #3
  call void @llvm.lifetime.end.p0(i64 8, ptr %5) #3
  br label %35

35:                                               ; preds = %31
  %36 = load ptr, ptr %7, align 8
  %37 = load i32, ptr %8, align 4
  %38 = insertvalue { ptr, i32 } poison, ptr %36, 0
  %39 = insertvalue { ptr, i32 } %38, i32 %37, 1
  resume { ptr, i32 } %39
}